
 Start Length Name Class
 0001:00011000 000007F38H _TEXT                  CODE
 0002:00019000 000002568H _DATA                  DATA
 0003:0001B568 000000870H _BSS                   BSS
 0004:00000000 00000009CH _TLS                   TLS


Detailed map of segments
 0001:000000B0 0000014F C=CODE    S=_TEXT    G=(none)   M=C:\PROGRAM FILES\BORLAND\CBUILDER6\LIB\C0W32.OBJ ACBP=A9
 0001:00000200 0000002B C=CODE    S=_TEXT    G=(none)   M=C:\PROGRAM FILES\BORLAND\CBUILDER6\LIB\CW32.LIB|calloc ACBP=A9
 0001:0000022C 0000000F C=CODE    S=_TEXT    G=(none)   M=C:\PROGRAM FILES\BORLAND\CBUILDER6\LIB\CW32.LIB|del ACBP=A9
 0001:0000023C 0000000F C=CODE    S=_TEXT    G=(none)   M=C:\PROGRAM FILES\BORLAND\CBUILDER6\LIB\CW32.LIB|delarray ACBP=A9
 0001:0000024C 000001B6 C=CODE    S=_TEXT    G=(none)   M=C:\PROGRAM FILES\BORLAND\CBUILDER6\LIB\CW32.LIB|new ACBP=A9
 0001:00000404 0000000F C=CODE    S=_TEXT    G=(none)   M=C:\PROGRAM FILES\BORLAND\CBUILDER6\LIB\CW32.LIB|newarray ACBP=A9
 0001:00000414 000000DB C=CODE    S=_TEXT    G=(none)   M=C:\PROGRAM FILES\BORLAND\CBUILDER6\LIB\CW32.LIB|setnew ACBP=A9
 0001:000004E8 00000111 C=CODE    S=_TEXT    G=(none)   M=C:\PROGRAM FILES\BORLAND\CBUILDER6\LIB\CW32.LIB|virtmem ACBP=A9
 0001:000005FC 0000009F C=CODE    S=_TEXT    G=(none)   M=C:\PROGRAM FILES\BORLAND\CBUILDER6\LIB\CW32.LIB|hrdir_b ACBP=A9
 0001:0000069C 00000020 C=CODE    S=_TEXT    G=(none)   M=C:\PROGRAM FILES\BORLAND\CBUILDER6\LIB\CW32.LIB|hrdir_mf ACBP=A9
 0001:000006BC 00000016 C=CODE    S=_TEXT    G=(none)   M=C:\PROGRAM FILES\BORLAND\CBUILDER6\LIB\CW32.LIB|hrdir_r ACBP=A9
 0001:000006D4 000000B8 C=CODE    S=_TEXT    G=(none)   M=C:\PROGRAM FILES\BORLAND\CBUILDER6\LIB\CW32.LIB|hrdir_s ACBP=A9
 0001:0000078C 00000001 C=CODE    S=_TEXT    G=(none)   M=C:\PROGRAM FILES\BORLAND\CBUILDER6\LIB\CW32.LIB|hrdir_us ACBP=A9
 0001:00000790 000009CC C=CODE    S=_TEXT    G=(none)   M=C:\PROGRAM FILES\BORLAND\CBUILDER6\LIB\CW32.LIB|heap ACBP=A9
 0001:0000115C 00000292 C=CODE    S=_TEXT    G=(none)   M=C:\PROGRAM FILES\BORLAND\CBUILDER6\LIB\CW32.LIB|realloc ACBP=A9
 0001:000013F0 00000001 C=CODE    S=_TEXT    G=(none)   M=C:\PROGRAM FILES\BORLAND\CBUILDER6\LIB\CW32.LIB|crtlst_i ACBP=A9
 0001:000013F4 00000001 C=CODE    S=_TEXT    G=(none)   M=C:\PROGRAM FILES\BORLAND\CBUILDER6\LIB\CW32.LIB|crtlst_l ACBP=A9
 0001:000013F8 00000214 C=CODE    S=_TEXT    G=(none)   M=C:\PROGRAM FILES\BORLAND\CBUILDER6\LIB\CW32.LIB|predecl ACBP=A9
 0001:00001602 00000102 C=CODE    S=_TEXT    G=(none)   M=C:\PROGRAM FILES\BORLAND\CBUILDER6\LIB\CW32.LIB|stdexcpt ACBP=A9
 0001:00001680 00000024 C=CODE    S=_TEXT    G=(none)   M=C:\PROGRAM FILES\BORLAND\CBUILDER6\LIB\CW32.LIB|memcpy ACBP=A9
 0001:000016A4 0000004A C=CODE    S=_TEXT    G=(none)   M=C:\PROGRAM FILES\BORLAND\CBUILDER6\LIB\CW32.LIB|memmove ACBP=A9
 0001:000016F0 0000008A C=CODE    S=_TEXT    G=(none)   M=C:\PROGRAM FILES\BORLAND\CBUILDER6\LIB\CW32.LIB|memset ACBP=A9
 0001:0000177C 00000018 C=CODE    S=_TEXT    G=(none)   M=C:\PROGRAM FILES\BORLAND\CBUILDER6\LIB\CW32.LIB|wmemset ACBP=A9
 0001:00001794 0000005A C=CODE    S=_TEXT    G=(none)   M=C:\PROGRAM FILES\BORLAND\CBUILDER6\LIB\CW32.LIB|strlen ACBP=A9
 0001:000017F0 0000006E C=CODE    S=_TEXT    G=(none)   M=C:\PROGRAM FILES\BORLAND\CBUILDER6\LIB\CW32.LIB|strncat ACBP=A9
 0001:00001860 0000006C C=CODE    S=_TEXT    G=(none)   M=C:\PROGRAM FILES\BORLAND\CBUILDER6\LIB\CW32.LIB|memcmp ACBP=A9
 0001:000018CC 00000032 C=CODE    S=_TEXT    G=(none)   M=C:\PROGRAM FILES\BORLAND\CBUILDER6\LIB\CW32.LIB|strdup ACBP=A9
 0001:00001900 00000018 C=CODE    S=_TEXT    G=(none)   M=C:\PROGRAM FILES\BORLAND\CBUILDER6\LIB\CW32.LIB|wcslen ACBP=A9
 0001:00001918 0000003F C=CODE    S=_TEXT    G=(none)   M=C:\PROGRAM FILES\BORLAND\CBUILDER6\LIB\CW32.LIB|wcscpy ACBP=A9
 0001:00001958 00000070 C=CODE    S=_TEXT    G=(none)   M=C:\PROGRAM FILES\BORLAND\CBUILDER6\LIB\CW32.LIB|xxa ACBP=A9
 0001:000019C8 00000AB6 C=CODE    S=_TEXT    G=(none)   M=C:\PROGRAM FILES\BORLAND\CBUILDER6\LIB\CW32.LIB|xxtype ACBP=A9
 0001:0000247E 000000B6 C=CODE    S=_TEXT    G=(none)   M=C:\PROGRAM FILES\BORLAND\CBUILDER6\LIB\CW32.LIB|xxut ACBP=A9
 0001:00002520 0000014B C=CODE    S=_TEXT    G=(none)   M=C:\PROGRAM FILES\BORLAND\CBUILDER6\LIB\CW32.LIB|xxv ACBP=A9
 0001:0000266C 0000000A C=CODE    S=_TEXT    G=(none)   M=C:\PROGRAM FILES\BORLAND\CBUILDER6\LIB\CW32.LIB|defhandl ACBP=A9
 0001:00002678 00000179 C=CODE    S=_TEXT    G=(none)   M=C:\PROGRAM FILES\BORLAND\CBUILDER6\LIB\CW32.LIB|except ACBP=A9
 0001:000027F4 00000046 C=CODE    S=_TEXT    G=(none)   M=C:\PROGRAM FILES\BORLAND\CBUILDER6\LIB\CW32.LIB|setexc ACBP=A9
 0001:0000283C 00000022 C=CODE    S=_TEXT    G=(none)   M=C:\PROGRAM FILES\BORLAND\CBUILDER6\LIB\CW32.LIB|ta ACBP=A9
 0001:00002860 00000047 C=CODE    S=_TEXT    G=(none)   M=C:\PROGRAM FILES\BORLAND\CBUILDER6\LIB\CW32.LIB|__isatty ACBP=A9
 0001:000028A8 00000076 C=CODE    S=_TEXT    G=(none)   M=C:\PROGRAM FILES\BORLAND\CBUILDER6\LIB\CW32.LIB|__lseek ACBP=A9
 0001:00002920 0000011C C=CODE    S=_TEXT    G=(none)   M=C:\PROGRAM FILES\BORLAND\CBUILDER6\LIB\CW32.LIB|__write ACBP=A9
 0001:00002A3C 00000011 C=CODE    S=_TEXT    G=(none)   M=C:\PROGRAM FILES\BORLAND\CBUILDER6\LIB\CW32.LIB|_cfinfo ACBP=A9
 0001:00002A50 00000038 C=CODE    S=_TEXT    G=(none)   M=C:\PROGRAM FILES\BORLAND\CBUILDER6\LIB\CW32.LIB|_flshall ACBP=A9
 0001:00002A88 00000061 C=CODE    S=_TEXT    G=(none)   M=C:\PROGRAM FILES\BORLAND\CBUILDER6\LIB\CW32.LIB|_write ACBP=A9
 0001:00002AEC 0000007D C=CODE    S=_TEXT    G=(none)   M=C:\PROGRAM FILES\BORLAND\CBUILDER6\LIB\CW32.LIB|allocbuf ACBP=A9
 0001:00002B6C 0000007F C=CODE    S=_TEXT    G=(none)   M=C:\PROGRAM FILES\BORLAND\CBUILDER6\LIB\CW32.LIB|fflush ACBP=A9
 0001:00002BEC 0000005A C=CODE    S=_TEXT    G=(none)   M=C:\PROGRAM FILES\BORLAND\CBUILDER6\LIB\CW32.LIB|flushout ACBP=A9
 0001:00002C48 00000023 C=CODE    S=_TEXT    G=(none)   M=C:\PROGRAM FILES\BORLAND\CBUILDER6\LIB\CW32.LIB|fmodeptr ACBP=A9
 0001:00002C6C 000002B9 C=CODE    S=_TEXT    G=(none)   M=C:\PROGRAM FILES\BORLAND\CBUILDER6\LIB\CW32.LIB|handles ACBP=A9
 0001:00002F28 00000076 C=CODE    S=_TEXT    G=(none)   M=C:\PROGRAM FILES\BORLAND\CBUILDER6\LIB\CW32.LIB|ioerror ACBP=A9
 0001:00002F9E 00000079 C=CODE    S=_TEXT    G=(none)   M=C:\PROGRAM FILES\BORLAND\CBUILDER6\LIB\CW32.LIB|perror ACBP=A9
 0001:00002FA0 00000115 C=CODE    S=_TEXT    G=(none)   M=C:\PROGRAM FILES\BORLAND\CBUILDER6\LIB\CW32.LIB|streams ACBP=A9
 0001:000030B8 00000027 C=CODE    S=_TEXT    G=(none)   M=C:\PROGRAM FILES\BORLAND\CBUILDER6\LIB\CW32.LIB|xfflush ACBP=A9
 0001:000030E0 00000051 C=CODE    S=_TEXT    G=(none)   M=C:\PROGRAM FILES\BORLAND\CBUILDER6\LIB\CW32.LIB|getinfo ACBP=A9
 0001:00003134 00000102 C=CODE    S=_TEXT    G=(none)   M=C:\PROGRAM FILES\BORLAND\CBUILDER6\LIB\CW32.LIB|is ACBP=A9
 0001:00003238 00000103 C=CODE    S=_TEXT    G=(none)   M=C:\PROGRAM FILES\BORLAND\CBUILDER6\LIB\CW32.LIB|wis ACBP=A9
 0001:0000333C 00000043 C=CODE    S=_TEXT    G=(none)   M=C:\PROGRAM FILES\BORLAND\CBUILDER6\LIB\CW32.LIB|isctype ACBP=A9
 0001:00003380 00000055 C=CODE    S=_TEXT    G=(none)   M=C:\PROGRAM FILES\BORLAND\CBUILDER6\LIB\CW32.LIB|iswctype ACBP=A9
 0001:000033D8 00000188 C=CODE    S=_TEXT    G=(none)   M=C:\PROGRAM FILES\BORLAND\CBUILDER6\LIB\CW32.LIB|_pow10 ACBP=A9
 0001:00003560 00000013 C=CODE    S=_TEXT    G=(none)   M=C:\PROGRAM FILES\BORLAND\CBUILDER6\LIB\CW32.LIB|clear87 ACBP=A9
 0001:00003574 0000002F C=CODE    S=_TEXT    G=(none)   M=C:\PROGRAM FILES\BORLAND\CBUILDER6\LIB\CW32.LIB|ctrl87 ACBP=A9
 0001:000035A4 00000018 C=CODE    S=_TEXT    G=(none)   M=C:\PROGRAM FILES\BORLAND\CBUILDER6\LIB\CW32.LIB|cvtfak ACBP=A9
 0001:000035BC 00000018 C=CODE    S=_TEXT    G=(none)   M=C:\PROGRAM FILES\BORLAND\CBUILDER6\LIB\CW32.LIB|cvtfakw ACBP=A9
 0001:000035D4 00000016 C=CODE    S=_TEXT    G=(none)   M=C:\PROGRAM FILES\BORLAND\CBUILDER6\LIB\CW32.LIB|fpreset ACBP=A9
 0001:000035EC 0000002D C=CODE    S=_TEXT    G=(none)   M=C:\PROGRAM FILES\BORLAND\CBUILDER6\LIB\CW32.LIB|fuildq ACBP=A9
 0001:0000361C 00000021 C=CODE    S=_TEXT    G=(none)   M=C:\PROGRAM FILES\BORLAND\CBUILDER6\LIB\CW32.LIB|fuistq ACBP=A9
 0001:00003640 00000011 C=CODE    S=_TEXT    G=(none)   M=C:\PROGRAM FILES\BORLAND\CBUILDER6\LIB\CW32.LIB|fxam ACBP=A9
 0001:00003654 00000117 C=CODE    S=_TEXT    G=(none)   M=C:\PROGRAM FILES\BORLAND\CBUILDER6\LIB\CW32.LIB|ldtrunc ACBP=A9
 0001:0000376C 0000008F C=CODE    S=_TEXT    G=(none)   M=C:\PROGRAM FILES\BORLAND\CBUILDER6\LIB\CW32.LIB|longtoa ACBP=A9
 0001:000037FC 0000002A C=CODE    S=_TEXT    G=(none)   M=C:\PROGRAM FILES\BORLAND\CBUILDER6\LIB\CW32.LIB|matherr ACBP=A9
 0001:00003828 0000002E C=CODE    S=_TEXT    G=(none)   M=C:\PROGRAM FILES\BORLAND\CBUILDER6\LIB\CW32.LIB|matherrl ACBP=A9
 0001:00003858 00000016 C=CODE    S=_TEXT    G=(none)   M=C:\PROGRAM FILES\BORLAND\CBUILDER6\LIB\CW32.LIB|mathptr ACBP=A9
 0001:00003870 00000025 C=CODE    S=_TEXT    G=(none)   M=C:\PROGRAM FILES\BORLAND\CBUILDER6\LIB\CW32.LIB|qdiv10 ACBP=A9
 0001:00003898 0000002E C=CODE    S=_TEXT    G=(none)   M=C:\PROGRAM FILES\BORLAND\CBUILDER6\LIB\CW32.LIB|qmul10 ACBP=A9
 0001:000038C8 000002F9 C=CODE    S=_TEXT    G=(none)   M=C:\PROGRAM FILES\BORLAND\CBUILDER6\LIB\CW32.LIB|realcvt ACBP=A9
 0001:00003BC4 00000331 C=CODE    S=_TEXT    G=(none)   M=C:\PROGRAM FILES\BORLAND\CBUILDER6\LIB\CW32.LIB|realcvtw ACBP=A9
 0001:00003EF8 000004E1 C=CODE    S=_TEXT    G=(none)   M=C:\PROGRAM FILES\BORLAND\CBUILDER6\LIB\CW32.LIB|scantod ACBP=A9
 0001:000043DC 000004DD C=CODE    S=_TEXT    G=(none)   M=C:\PROGRAM FILES\BORLAND\CBUILDER6\LIB\CW32.LIB|scanwtod ACBP=A9
 0001:000048BC 000002D2 C=CODE    S=_TEXT    G=(none)   M=C:\PROGRAM FILES\BORLAND\CBUILDER6\LIB\CW32.LIB|xcvt ACBP=A9
 0001:00004B90 000002F1 C=CODE    S=_TEXT    G=(none)   M=C:\PROGRAM FILES\BORLAND\CBUILDER6\LIB\CW32.LIB|xcvtw ACBP=A9
 0001:00004E84 00000139 C=CODE    S=_TEXT    G=(none)   M=C:\PROGRAM FILES\BORLAND\CBUILDER6\LIB\CW32.LIB|mbctype ACBP=A9
 0001:00004FC0 0000001A C=CODE    S=_TEXT    G=(none)   M=C:\PROGRAM FILES\BORLAND\CBUILDER6\LIB\CW32.LIB|mbisspc ACBP=A9
 0001:00004FDC 00000056 C=CODE    S=_TEXT    G=(none)   M=C:\PROGRAM FILES\BORLAND\CBUILDER6\LIB\CW32.LIB|mbsrchr ACBP=A9
 0001:00005034 000000A6 C=CODE    S=_TEXT    G=(none)   M=C:\PROGRAM FILES\BORLAND\CBUILDER6\LIB\CW32.LIB|assert ACBP=A9
 0001:000050DC 000000B8 C=CODE    S=_TEXT    G=(none)   M=C:\PROGRAM FILES\BORLAND\CBUILDER6\LIB\CW32.LIB|ermsghlp ACBP=A9
 0001:00005194 00000006 C=CODE    S=_TEXT    G=(none)   M=C:\PROGRAM FILES\BORLAND\CBUILDER6\LIB\CW32.LIB|errno ACBP=A9
 0001:00005194 0000019B C=CODE    S=_TEXT    G=(none)   M=C:\PROGRAM FILES\BORLAND\CBUILDER6\LIB\CW32.LIB|errormsg ACBP=A9
 0001:00005330 00000089 C=CODE    S=_TEXT    G=(none)   M=C:\PROGRAM FILES\BORLAND\CBUILDER6\LIB\CW32.LIB|platform ACBP=A9
 0001:000053BC 00000022 C=CODE    S=_TEXT    G=(none)   M=C:\PROGRAM FILES\BORLAND\CBUILDER6\LIB\CW32.LIB|abort ACBP=A9
 0001:000053E0 000000A7 C=CODE    S=_TEXT    G=(none)   M=C:\PROGRAM FILES\BORLAND\CBUILDER6\LIB\CW32.LIB|exit ACBP=A9
 0001:00005488 0000001A C=CODE    S=_TEXT    G=(none)   M=C:\PROGRAM FILES\BORLAND\CBUILDER6\LIB\CW32.LIB|initwild ACBP=A9
 0001:000054A4 00000011 C=CODE    S=_TEXT    G=(none)   M=C:\PROGRAM FILES\BORLAND\CBUILDER6\LIB\CW32.LIB|exparg ACBP=A9
 0001:000054B8 00000011 C=CODE    S=_TEXT    G=(none)   M=C:\PROGRAM FILES\BORLAND\CBUILDER6\LIB\CW32.LIB|wexparg ACBP=A9
 0001:000054CC 00000027 C=CODE    S=_TEXT    G=(none)   M=C:\PROGRAM FILES\BORLAND\CBUILDER6\LIB\CW32.LIB|initargv ACBP=A9
 0001:000054F4 0000016C C=CODE    S=_TEXT    G=(none)   M=C:\PROGRAM FILES\BORLAND\CBUILDER6\LIB\CW32.LIB|setargv ACBP=A9
 0001:00005660 000001E5 C=CODE    S=_TEXT    G=(none)   M=C:\PROGRAM FILES\BORLAND\CBUILDER6\LIB\CW32.LIB|hsargv ACBP=A9
 0001:00005848 00000227 C=CODE    S=_TEXT    G=(none)   M=C:\PROGRAM FILES\BORLAND\CBUILDER6\LIB\CW32.LIB|whsargv ACBP=A9
 0001:00005A70 00000045 C=CODE    S=_TEXT    G=(none)   M=C:\PROGRAM FILES\BORLAND\CBUILDER6\LIB\CW32.LIB|setargv0 ACBP=A9
 0001:00005AB8 000001A0 C=CODE    S=_TEXT    G=(none)   M=C:\PROGRAM FILES\BORLAND\CBUILDER6\LIB\CW32.LIB|setenvp ACBP=A9
 0001:00005C58 000002F8 C=CODE    S=_TEXT    G=(none)   M=C:\PROGRAM FILES\BORLAND\CBUILDER6\LIB\CW32.LIB|signal ACBP=A9
 0001:00005F50 00000157 C=CODE    S=_TEXT    G=(none)   M=C:\PROGRAM FILES\BORLAND\CBUILDER6\LIB\CW32.LIB|initexit ACBP=A9
 0001:000060A8 000001A4 C=CODE    S=_TEXT    G=(none)   M=C:\PROGRAM FILES\BORLAND\CBUILDER6\LIB\CW32.LIB|startup ACBP=A9
 0001:0000624C 0000004F C=CODE    S=_TEXT    G=(none)   M=C:\PROGRAM FILES\BORLAND\CBUILDER6\LIB\CW32.LIB|tlsstat ACBP=A9
 0001:0000629C 00001BA2 C=CODE    S=_TEXT    G=(none)   M=C:\PROGRAM FILES\BORLAND\CBUILDER6\LIB\CW32.LIB|xx ACBP=A9
 0002:00000000 000000A4 C=DATA    S=_DATA    G=DGROUP   M=C:\PROGRAM FILES\BORLAND\CBUILDER6\LIB\C0W32.OBJ ACBP=A9
 0002:000000A4 00000070 C=DATA    S=_DATA    G=DGROUP   M=C:\PROGRAM FILES\BORLAND\CBUILDER6\LIB\CW32.LIB|new ACBP=A9
 0002:00000114 00000088 C=DATA    S=_DATA    G=DGROUP   M=C:\PROGRAM FILES\BORLAND\CBUILDER6\LIB\CW32.LIB|setnew ACBP=A9
 0002:00000188 00000004 C=DATA    S=_DATA    G=DGROUP   M=C:\PROGRAM FILES\BORLAND\CBUILDER6\LIB\CW32.LIB|virtmem ACBP=A9
 0002:0000018C 00000098 C=DATA    S=_DATA    G=DGROUP   M=C:\PROGRAM FILES\BORLAND\CBUILDER6\LIB\CW32.LIB|hrdir_b ACBP=A9
 0002:00000224 00000020 C=DATA    S=_DATA    G=DGROUP   M=C:\PROGRAM FILES\BORLAND\CBUILDER6\LIB\CW32.LIB|hrdir_s ACBP=A9
 0002:00000244 00000040 C=DATA    S=_DATA    G=DGROUP   M=C:\PROGRAM FILES\BORLAND\CBUILDER6\LIB\CW32.LIB|heap ACBP=A9
 0002:00000284 00000070 C=DATA    S=_DATA    G=DGROUP   M=C:\PROGRAM FILES\BORLAND\CBUILDER6\LIB\CW32.LIB|predecl ACBP=A9
 0002:000002F4 00000095 C=DATA    S=_DATA    G=DGROUP   M=C:\PROGRAM FILES\BORLAND\CBUILDER6\LIB\CW32.LIB|stdexcpt ACBP=A9
 0002:00000388 00000004 C=DATA    S=_DATA    G=DGROUP   M=C:\PROGRAM FILES\BORLAND\CBUILDER6\LIB\CW32.LIB|xx_xpf ACBP=A9
 0002:0000038C 00000348 C=DATA    S=_DATA    G=DGROUP   M=C:\PROGRAM FILES\BORLAND\CBUILDER6\LIB\CW32.LIB|xxtype ACBP=A9
 0002:000006D4 0000003C C=DATA    S=_DATA    G=DGROUP   M=C:\PROGRAM FILES\BORLAND\CBUILDER6\LIB\CW32.LIB|xxut ACBP=A9
 0002:00000710 000000E4 C=DATA    S=_DATA    G=DGROUP   M=C:\PROGRAM FILES\BORLAND\CBUILDER6\LIB\CW32.LIB|xxv ACBP=A9
 0002:000007F4 00000014 C=DATA    S=_DATA    G=DGROUP   M=C:\PROGRAM FILES\BORLAND\CBUILDER6\LIB\CW32.LIB|except ACBP=A9
 0002:00000808 00000004 C=DATA    S=_DATA    G=DGROUP   M=C:\PROGRAM FILES\BORLAND\CBUILDER6\LIB\CW32.LIB|_cfinfo ACBP=A9
 0002:0000080C 00000004 C=DATA    S=_DATA    G=DGROUP   M=C:\PROGRAM FILES\BORLAND\CBUILDER6\LIB\CW32.LIB|cfinfo ACBP=A9
 0002:00000810 000004B0 C=DATA    S=_DATA    G=DGROUP   M=C:\PROGRAM FILES\BORLAND\CBUILDER6\LIB\CW32.LIB|files ACBP=A9
 0002:00000CC0 000000CC C=DATA    S=_DATA    G=DGROUP   M=C:\PROGRAM FILES\BORLAND\CBUILDER6\LIB\CW32.LIB|files2 ACBP=A9
 0002:00000D8C 00000004 C=DATA    S=_DATA    G=DGROUP   M=C:\PROGRAM FILES\BORLAND\CBUILDER6\LIB\CW32.LIB|fmode ACBP=A9
 0002:00000D90 00000004 C=DATA    S=_DATA    G=DGROUP   M=C:\PROGRAM FILES\BORLAND\CBUILDER6\LIB\CW32.LIB|fmodeptr ACBP=A9
 0002:00000D94 0000012B C=DATA    S=_DATA    G=DGROUP   M=C:\PROGRAM FILES\BORLAND\CBUILDER6\LIB\CW32.LIB|ioerror ACBP=A9
 0002:00000EC0 0000047C C=DATA    S=_DATA    G=DGROUP   M=C:\PROGRAM FILES\BORLAND\CBUILDER6\LIB\CW32.LIB|perror ACBP=A9
 0002:0000133C 00000202 C=DATA    S=_DATA    G=DGROUP   M=C:\PROGRAM FILES\BORLAND\CBUILDER6\LIB\CW32.LIB|bigctype ACBP=A9
 0002:00001540 00000260 C=DATA    S=_DATA    G=DGROUP   M=C:\PROGRAM FILES\BORLAND\CBUILDER6\LIB\CW32.LIB|clocale ACBP=A9
 0002:000017A0 000000C0 C=DATA    S=_DATA    G=DGROUP   M=C:\PROGRAM FILES\BORLAND\CBUILDER6\LIB\CW32.LIB|_pow10 ACBP=A9
 0002:00001860 00000068 C=DATA    S=_DATA    G=DGROUP   M=C:\PROGRAM FILES\BORLAND\CBUILDER6\LIB\CW32.LIB|cvtfak ACBP=A9
 0002:000018C8 00000068 C=DATA    S=_DATA    G=DGROUP   M=C:\PROGRAM FILES\BORLAND\CBUILDER6\LIB\CW32.LIB|cvtfakw ACBP=A9
 0002:00001930 00000004 C=DATA    S=_DATA    G=DGROUP   M=C:\PROGRAM FILES\BORLAND\CBUILDER6\LIB\CW32.LIB|deflt87 ACBP=A9
 0002:00001934 0000007C C=DATA    S=_DATA    G=DGROUP   M=C:\PROGRAM FILES\BORLAND\CBUILDER6\LIB\CW32.LIB|hugeval ACBP=A9
 0002:000019B0 00000008 C=DATA    S=_DATA    G=DGROUP   M=C:\PROGRAM FILES\BORLAND\CBUILDER6\LIB\CW32.LIB|initcvt ACBP=A9
 0002:000019B8 00000008 C=DATA    S=_DATA    G=DGROUP   M=C:\PROGRAM FILES\BORLAND\CBUILDER6\LIB\CW32.LIB|mathptr ACBP=A9
 0002:000019C0 00000014 C=DATA    S=_DATA    G=DGROUP   M=C:\PROGRAM FILES\BORLAND\CBUILDER6\LIB\CW32.LIB|realcvt ACBP=A9
 0002:000019D4 00000028 C=DATA    S=_DATA    G=DGROUP   M=C:\PROGRAM FILES\BORLAND\CBUILDER6\LIB\CW32.LIB|realcvtw ACBP=A9
 0002:000019FC 00000028 C=DATA    S=_DATA    G=DGROUP   M=C:\PROGRAM FILES\BORLAND\CBUILDER6\LIB\CW32.LIB|scantod ACBP=A9
 0002:00001A24 00000028 C=DATA    S=_DATA    G=DGROUP   M=C:\PROGRAM FILES\BORLAND\CBUILDER6\LIB\CW32.LIB|scanwtod ACBP=A9
 0002:00001A4C 00000048 C=DATA    S=_DATA    G=DGROUP   M=C:\PROGRAM FILES\BORLAND\CBUILDER6\LIB\CW32.LIB|mbctype ACBP=A9
 0002:00001A94 00000024 C=DATA    S=_DATA    G=DGROUP   M=C:\PROGRAM FILES\BORLAND\CBUILDER6\LIB\CW32.LIB|assert ACBP=A9
 0002:00001AB8 00000024 C=DATA    S=_DATA    G=DGROUP   M=C:\PROGRAM FILES\BORLAND\CBUILDER6\LIB\CW32.LIB|ermsghlp ACBP=A9
 0002:00001ADC 00000004 C=DATA    S=_DATA    G=DGROUP   M=C:\PROGRAM FILES\BORLAND\CBUILDER6\LIB\CW32.LIB|errno ACBP=A9
 0002:00001AE0 00000010 C=DATA    S=_DATA    G=DGROUP   M=C:\PROGRAM FILES\BORLAND\CBUILDER6\LIB\CW32.LIB|errormsg ACBP=A9
 0002:00001AF0 00000028 C=DATA    S=_DATA    G=DGROUP   M=C:\PROGRAM FILES\BORLAND\CBUILDER6\LIB\CW32.LIB|platform ACBP=A9
 0002:00001B18 00000020 C=DATA    S=_DATA    G=DGROUP   M=C:\PROGRAM FILES\BORLAND\CBUILDER6\LIB\CW32.LIB|abort ACBP=A9
 0002:00001B38 00000004 C=DATA    S=_DATA    G=DGROUP   M=C:\PROGRAM FILES\BORLAND\CBUILDER6\LIB\CW32.LIB|patexit ACBP=A9
 0002:00001B3C 0000000C C=DATA    S=_DATA    G=DGROUP   M=C:\PROGRAM FILES\BORLAND\CBUILDER6\LIB\CW32.LIB|exit ACBP=A9
 0002:00001B48 00000008 C=DATA    S=_DATA    G=DGROUP   M=C:\PROGRAM FILES\BORLAND\CBUILDER6\LIB\CW32.LIB|saptr ACBP=A9
 0002:00001B50 00000008 C=DATA    S=_DATA    G=DGROUP   M=C:\PROGRAM FILES\BORLAND\CBUILDER6\LIB\CW32.LIB|wsaptr ACBP=A9
 0002:00001B58 00000054 C=DATA    S=_DATA    G=DGROUP   M=C:\PROGRAM FILES\BORLAND\CBUILDER6\LIB\CW32.LIB|setargv ACBP=A9
 0002:00001BAC 00000028 C=DATA    S=_DATA    G=DGROUP   M=C:\PROGRAM FILES\BORLAND\CBUILDER6\LIB\CW32.LIB|hsargv ACBP=A9
 0002:00001BD4 00000024 C=DATA    S=_DATA    G=DGROUP   M=C:\PROGRAM FILES\BORLAND\CBUILDER6\LIB\CW32.LIB|whsargv ACBP=A9
 0002:00001BF8 00000004 C=DATA    S=_DATA    G=DGROUP   M=C:\PROGRAM FILES\BORLAND\CBUILDER6\LIB\CW32.LIB|wildptr ACBP=A9
 0002:00001BFC 00000004 C=DATA    S=_DATA    G=DGROUP   M=C:\PROGRAM FILES\BORLAND\CBUILDER6\LIB\CW32.LIB|wwildptr ACBP=A9
 0002:00001C00 00000020 C=DATA    S=_DATA    G=DGROUP   M=C:\PROGRAM FILES\BORLAND\CBUILDER6\LIB\CW32.LIB|setargv0 ACBP=A9
 0002:00001C20 00000054 C=DATA    S=_DATA    G=DGROUP   M=C:\PROGRAM FILES\BORLAND\CBUILDER6\LIB\CW32.LIB|setenvp ACBP=A9
 0002:00001C74 0000005E C=DATA    S=_DATA    G=DGROUP   M=C:\PROGRAM FILES\BORLAND\CBUILDER6\LIB\CW32.LIB|signal ACBP=A9
 0002:00001CD4 00000004 C=DATA    S=_DATA    G=DGROUP   M=C:\PROGRAM FILES\BORLAND\CBUILDER6\LIB\CW32.LIB|globals ACBP=A9
 0002:00001CD8 00000004 C=DATA    S=_DATA    G=DGROUP   M=C:\PROGRAM FILES\BORLAND\CBUILDER6\LIB\CW32.LIB|initexit ACBP=A9
 0002:00001CDC 0000088C C=DATA    S=_DATA    G=DGROUP   M=C:\PROGRAM FILES\BORLAND\CBUILDER6\LIB\CW32.LIB|xx ACBP=A9
 0003:00000000 00000008 C=BSS     S=_BSS     G=DGROUP   M=C:\PROGRAM FILES\BORLAND\CBUILDER6\LIB\CW32.LIB|setnew ACBP=A9
 0003:00000008 00000018 C=BSS     S=_BSS     G=DGROUP   M=C:\PROGRAM FILES\BORLAND\CBUILDER6\LIB\CW32.LIB|hrdir_b ACBP=A9
 0003:00000020 00000008 C=BSS     S=_BSS     G=DGROUP   M=C:\PROGRAM FILES\BORLAND\CBUILDER6\LIB\CW32.LIB|predecl ACBP=A9
 0003:00000028 00000408 C=BSS     S=_BSS     G=DGROUP   M=C:\PROGRAM FILES\BORLAND\CBUILDER6\LIB\CW32.LIB|xxtype ACBP=A9
 0003:00000430 00000008 C=BSS     S=_BSS     G=DGROUP   M=C:\PROGRAM FILES\BORLAND\CBUILDER6\LIB\CW32.LIB|xxv ACBP=A9
 0003:00000438 00000008 C=BSS     S=_BSS     G=DGROUP   M=C:\PROGRAM FILES\BORLAND\CBUILDER6\LIB\CW32.LIB|except ACBP=A9
 0003:00000440 00000190 C=BSS     S=_BSS     G=DGROUP   M=C:\PROGRAM FILES\BORLAND\CBUILDER6\LIB\CW32.LIB|files2 ACBP=A9
 0003:000005D0 00000004 C=BSS     S=_BSS     G=DGROUP   M=C:\PROGRAM FILES\BORLAND\CBUILDER6\LIB\CW32.LIB|ioerror ACBP=A9
 0003:000005D4 00000108 C=BSS     S=_BSS     G=DGROUP   M=C:\PROGRAM FILES\BORLAND\CBUILDER6\LIB\CW32.LIB|mbctype ACBP=A9
 0003:000006DC 00000100 C=BSS     S=_BSS     G=DGROUP   M=C:\PROGRAM FILES\BORLAND\CBUILDER6\LIB\CW32.LIB|assert ACBP=A9
 0003:000007DC 00000019 C=BSS     S=_BSS     G=DGROUP   M=C:\PROGRAM FILES\BORLAND\CBUILDER6\LIB\CW32.LIB|ermsghlp ACBP=A9
 0003:000007F8 00000004 C=BSS     S=_BSS     G=DGROUP   M=C:\PROGRAM FILES\BORLAND\CBUILDER6\LIB\CW32.LIB|platform ACBP=A9
 0003:000007FC 0000000C C=BSS     S=_BSS     G=DGROUP   M=C:\PROGRAM FILES\BORLAND\CBUILDER6\LIB\CW32.LIB|setargv ACBP=A9
 0003:00000808 00000004 C=BSS     S=_BSS     G=DGROUP   M=C:\PROGRAM FILES\BORLAND\CBUILDER6\LIB\CW32.LIB|hsargv ACBP=A9
 0003:0000080C 00000004 C=BSS     S=_BSS     G=DGROUP   M=C:\PROGRAM FILES\BORLAND\CBUILDER6\LIB\CW32.LIB|whsargv ACBP=A9
 0003:00000810 00000010 C=BSS     S=_BSS     G=DGROUP   M=C:\PROGRAM FILES\BORLAND\CBUILDER6\LIB\CW32.LIB|setenvp ACBP=A9
 0003:00000820 00000040 C=BSS     S=_BSS     G=DGROUP   M=C:\PROGRAM FILES\BORLAND\CBUILDER6\LIB\CW32.LIB|globals ACBP=A9
 0003:00000860 00000010 C=BSS     S=_BSS     G=DGROUP   M=C:\PROGRAM FILES\BORLAND\CBUILDER6\LIB\CW32.LIB|xx ACBP=A9
 0004:00000000 0000009C C=TLS     S=_TLS     G=DGROUP   M=C:\PROGRAM FILES\BORLAND\CBUILDER6\LIB\CW32.LIB|xxv ACBP=A9

 Address Publics by Name

 0001:0000022C  @$bdele$qpv
 0001:0000023C  @$bdla$qpv
 0001:00000260  @$bnew$qui
 0001:00000404  @$bnwa$qui
 0001:000014CC  @$xt$12std@bad_cast
 0001:000002F0  @$xt$13std@bad_alloc
 0001:000003A0  @$xt$13std@exception
 0001:000023B4  @$xt$13std@type_info
 0001:00001524  @$xt$14std@bad_typeid
 0001:00002400  @$xt$14type_info_hash
 0001:00000388  @$xt$p13std@bad_alloc
 0003:000005D4  @B1431_2
 0003:000006DC  @B1567_2
 0003:000007DC  @B1583_2
 0003:000007F8  @B1595_2
 0003:000007FC  @B1677_2
 0003:00000808  @B1679_2
 0003:0000080C  @B1681_2
 0003:00000810  @B1753_2
 0003:00000820  @B1775_1
 0003:00000000  @B185_2
 0003:00000860  @B1873_2
 0003:00000008  @B207_2
 0003:00000020  @B251_2
 0003:00000028  @B521_2
 0003:00000430  @B525_2
 0003:00000438  @B531_2
 0003:00000440  @B721_1
 0003:000005D0  @B799_2
 0001:000030B8  @C1005_0
 0001:000030E0  @C1019_0
 0001:00003134  @C1027_0
 0001:00003238  @C1029_0
 0001:0000333C  @C1031_0
 0001:00003380  @C1033_0
 0001:000033D8  @C1171_0
 0001:00003560  @C1207_0
 0001:00003574  @C1221_0
 0001:000035A4  @C1227_0
 0001:000035BC  @C1229_0
 0001:000035D4  @C1269_0
 0001:000035EC  @C1277_0
 0001:0000361C  @C1279_0
 0001:00003640  @C1281_0
 0001:00003654  @C1307_0
 0001:0000376C  @C1317_0
 0001:000037FC  @C1329_0
 0001:00003828  @C1331_0
 0001:00003858  @C1333_0
 0001:00003870  @C1355_0
 0001:00003898  @C1357_0
 0001:000038C8  @C1361_0
 0001:00003BC4  @C1363_0
 0001:00003EF8  @C1371_0
 0001:000043DC  @C1373_0
 0001:000048BC  @C1417_0
 0001:00004B90  @C1419_0
 0001:00004E84  @C1431_0
 0001:00004FB0  @C1431_3
 0001:00004FC0  @C1453_0
 0001:00004FDC  @C1515_0
 0001:00005034  @C1567_0
 0001:000050DC  @C1583_0
 0001:00005194  @C1587_0
 0001:00005330  @C1595_0
 0001:00005330  @C1595_3
 0001:000053BC  @C1615_0
 0001:000053E0  @C1653_0
 0001:00005488  @C1661_0
 0001:000054A4  @C1663_0
 0001:000054B8  @C1665_0
 0001:000054CC  @C1671_0
 0001:000054F4  @C1677_0
 0001:000054F4  @C1677_3
 0001:0000557C  @C1677_4
 0001:00005660  @C1679_0
 0001:00005848  @C1681_0
 0001:00005A70  @C1739_0
 0001:00005A70  @C1739_2
 0001:00005AA8  @C1739_3
 0001:00005AB8  @C1753_0
 0001:00005C38  @C1753_3
 0001:00005AB8  @C1753_4
 0001:00005C58  @C1757_0
 0001:00000200  @C175_0
 0001:00005F50  @C1777_0
 0001:000060A8  @C1779_0
 0001:0000022C  @C177_0
 0001:0000624C  @C1793_0
 0001:0000023C  @C179_0
 0001:0000024C  @C181_0
 0001:00000404  @C183_0
 0001:00000414  @C185_0
 0001:00000468  @C185_3
 0001:00000474  @C185_4
 0001:000004B4  @C185_5
 0001:0000629C  @C1873_0
 0001:0000629C  @C1873_3
 0001:000000B0  @C1_0
 0001:000004E8  @C205_0
 0001:000005FC  @C207_0
 0001:0000069C  @C213_0
 0001:000006BC  @C215_0
 0001:000006D4  @C217_0
 0001:00000770  @C217_2
 0001:0000078C  @C219_0
 0001:00000790  @C223_0
 0001:0000115C  @C243_0
 0001:000013F0  @C245_0
 0001:000013F4  @C249_0
 0001:000013F8  @C251_0
 0001:00001428  @C251_3
 0001:00001484  @C251_4
 0001:00001680  @C393_0
 0001:000016A4  @C397_0
 0001:000016F0  @C399_0
 0001:0000177C  @C401_0
 0001:00001794  @C423_0
 0001:000017F0  @C425_0
 0001:00001860  @C441_0
 0001:000018CC  @C447_0
 0001:00001900  @C475_0
 0001:00001918  @C477_0
 0001:00001958  @C517_0
 0001:000019C8  @C521_0
 0001:00001E7B  @C521_3
 0001:00001B1F  @C521_4
 0001:00001EA6  @C521_5
 0001:00002520  @C525_0
 0001:00002520  @C525_4
 0001:0000266C  @C527_0
 0001:00002678  @C531_0
 0001:000027B4  @C531_3
 0001:000027CC  @C531_4
 0001:000027F4  @C535_0
 0001:0000283C  @C537_0
 0001:00002860  @C553_0
 0001:000028A8  @C555_0
 0001:00002920  @C565_0
 0001:00002A3C  @C567_0
 0001:00002A50  @C585_0
 0001:00002A88  @C641_0
 0001:00002AEC  @C645_0
 0001:00002B6C  @C707_0
 0001:00002BEC  @C729_0
 0001:00002C48  @C733_0
 0001:00002C6C  @C797_0
 0001:00002F28  @C799_0
 0001:00002FA0  @C899_0
 0001:0000305C  @C899_1
 0002:0000133C  @D1007_0
 0002:00001540  @D1037_0
 0002:000017A0  @D1171_1
 0002:00001860  @D1227_1
 0002:000018C8  @D1229_1
 0002:00001930  @D1231_0
 0002:00001934  @D1285_0
 0002:000019B0  @D1295_0
 0002:000019B8  @D1333_1
 0002:000019C0  @D1361_1
 0002:000019D4  @D1363_1
 0002:000019FC  @D1371_1
 0002:00001A24  @D1373_1
 0002:00001A4C  @D1431_1
 0002:00001A94  @D1567_1
 0002:00001AB8  @D1583_1
 0002:00001ADC  @D1585_1
 0002:00001AE0  @D1587_1
 0002:00001AF0  @D1595_1
 0002:00001B18  @D1615_1
 0002:00001B38  @D1617_0
 0002:00001B3C  @D1653_1
 0002:00001B48  @D1673_0
 0002:00001B50  @D1675_0
 0002:00001B58  @D1677_1
 0002:00001BAC  @D1679_1
 0002:00001BD4  @D1681_1
 0002:00001BF8  @D1735_0
 0002:00001BFC  @D1737_0
 0002:00001C00  @D1739_1
 0002:00001C20  @D1753_1
 0002:00001C74  @D1757_1
 0002:00001CD4  @D1775_0
 0002:00001CD8  @D1777_1
 0002:000000A4  @D181_1
 0002:00000114  @D185_1
 0002:00001CDC  @D1873_1
 0002:00000000  @D1_1
 0002:00000188  @D205_1
 0002:0000018C  @D207_1
 0002:00000224  @D217_1
 0002:00000244  @D223_1
 0002:00000284  @D251_1
 0002:000002F4  @D313_1
 0002:00000388  @D519_0
 0002:0000038C  @D521_1
 0002:000006D4  @D523_1
 0002:00000710  @D525_1
 0002:000007F4  @D531_1
 0002:00000808  @D567_1
 0002:0000080C  @D647_0
 0002:00000810  @D719_0
 0002:00000CC0  @D721_0
 0002:00000D8C  @D731_0
 0002:00000D90  @D733_1
 0002:00000D94  @D799_1
 0002:00000EC0  @D831_1
 0001:000001F0  @Sysinit@@GetTls$qqrv
 0004:00000000  @T525_3
 0002:000007C0  @_$CHVC$@__call_terminate$qv
 0002:000006DC  @_$CHVC$@std@terminate$qv
 0002:00000364  @_$DCTFE$@std@bad_alloc@$bdtr$qv
 0002:000002BC  @_$ECTTN$@std@bad_typeid@$bdtr$qv
 0002:00000374  @_$ECTUFE$@std@bad_alloc@$bdtr$qv
 0002:000002C4  @_$ECTUN$@std@bad_cast@$bdtr$qv
 0002:000006AC  @_$ECTWC$@__GetTypeInfo$qpvt1t1
 0002:000007E0  @_$ECTWC$@__call_terminate$qv
 0002:000006FC  @_$ECTWC$@std@terminate$qv
 0001:00006AC8  @_CatchCleanup$qv
 0001:00002480  @_InitTermAndUnexPtrs$qv
 0001:00006921  @_ReThrowException$quipuc
 0001:000068EC  @_ThrowExceptionLDTC$qpvt1t1t1uiuiuipuct1
 0001:00001991  @__ExitExceptBlock
 0001:00002180  @__GetTypeInfo$qpvt1t1
 0001:00001958  @__InitExceptBlockLDTC
 0001:00002338  @__adjustClassAdr$qpvp4tpidt2
 0001:00001FDC  @__isCompatTypeID$qp4tpidt1ipp4tpid
 0001:00001F00  @__isSameTypeID$qp4tpidt1
 0002:000002FC  @__rwstd@__rw_stdexcept_BadAllocException
 0002:000002F8  @__rwstd@__rw_stdexcept_BadException
 0002:00000300  @__rwstd@__rw_stdexcept_Error
 0002:000002F4  @__rwstd@__rw_stdexcept_NoNamedException
 0001:00001EC8  @__typeIDname$qp4tpid
 0001:00000554  @_virt_alloc
 0001:0000057C  @_virt_commit
 0001:000005C8  @_virt_decommit
 0001:000005E0  @_virt_release
 0001:000004E8  @_virt_reserve
 0001:00002857  @invokeHnd$qv
 0001:0000283C  @jump$qv
 0001:00000348  @std@bad_alloc@$bctr$qrx13std@bad_alloc
 0001:00001624  @std@bad_alloc@$bdtr$qv
 0002:00000100  @std@bad_alloc@3
 0001:000003F8  @std@bad_alloc@what$xqv
 0001:000015C0  @std@bad_cast@$bdtr$qv
 0002:000002E0  @std@bad_cast@3
 0001:000022B8  @std@bad_typeid@$bctr$qrx14std@bad_typeid
 0001:0000157C  @std@bad_typeid@$bdtr$qv
 0002:000002CC  @std@bad_typeid@3
 0001:00001604  @std@exception@$bdtr$qv
 0002:000000EC  @std@exception@3
 0001:000003EC  @std@exception@what$xqv
 0001:0000024C  @std@set_new_handler$qpqv$v
 0001:000024A8  @std@terminate$qv
 0001:000020EC  @std@type_info@$bdtr$qv
 0001:0000210C  @std@type_info@$beql$xqrx13std@type_info
 0002:000006C4  @std@type_info@3
 0001:000022D0  @std@type_info@name$xqv
 0001:000024F8  @std@unexpected$qv
 0001:00002458  @type_info_hash@$bdtr$qv
 0002:000006B4  @type_info_hash@3
 0002:00001650  _CLOCALE
 0002:00001540  _CMonetary
 0002:00001574  _CNumeric
 0002:0000158C  _CTimeDate
 0003:00000820  __C0argc
 0003:00000824  __C0argv
 0003:00000828  __C0environ
 0001:00007DEA  __CurrExcContext
 0003:00000430  __DestructorCountPtr
 0001:00005318  __ErrorExit
 0001:000051EC  __ErrorMessage
 0001:0000512C  __ErrorMessageHelper
 0003:00000840  __ExcRegPtr
 0001:000025F8  __ExceptInit
 0002:000007AC  __ExceptVarsSize
 0001:0000199F  __ExceptionHandler
 0001:00000109  __GetExceptDLLinfo
 0001:00002644  __GetExceptDLLinfoInternal
 0001:0000698C  __Global_unwind
 0003:00000438  __HandlerPtr
 0001:000027E0  __InitDefaultHander
 0001:00006FF8  __Local_unwind
 0002:0000009C  __PackageInfoTable
 0001:0000700B  __Return_unwind
 0001:000027F4  __SetExceptionHandler
 0001:00002794  __SetUserHandler
 0002:0000008B  __TLS_index
 0002:0000008F  __TLS_index4
 0001:00002809  __UnsetExceptionHandler
 0001:00002835  __UnwindException
 0003:0000043C  __UserHandlerPtr
 0002:00000098  ___CPPdebugHook
 0002:00000098  ___CPPdebugHook_segment
 0002:00000710  ___CPPexceptionList
 0001:00000698  ___CRTL_MEM_CheckBorMem
 0001:0000061C  ___CRTL_MEM_GetBorMemPtrs
 0001:000006D4  ___CRTL_MEM_Revector
 0001:0000078C  ___CRTL_MEM_UseBorMM
 0001:0000624C  ___CRTL_TLS_Alloc
 0001:00006290  ___CRTL_TLS_ExitThread
 0001:00006254  ___CRTL_TLS_Free
 0001:00006298  ___CRTL_TLS_GetInfo
 0001:00006264  ___CRTL_TLS_GetValue
 0001:00006288  ___CRTL_TLS_InitThread
 0001:00006274  ___CRTL_TLS_SetValue
 0001:000013F4  ___CRTL_VCLLIB_Linkage
 0001:000013F0  ___CRTL_VCL_Init
 0001:00002F6C  ___DOSerror
 0001:0000266C  ___DefHandler
 0001:00005308  ___ErrorMessage
 0002:0000072C  ___ExceptStaticXbuff
 0001:00002F28  ___IOerror
 0001:000062C7  ___JumpToCatch__
 0001:00002F8C  ___NTerror
 0001:000001F0  ___System__GetTls
 0001:0000706C  ____ExceptionHandler
 0002:00000280  ___allocated
 0003:00000004  ___bad_alloc
 0001:0000254C  ___call_terminate
 0001:000025C0  ___call_unexpected
 0002:00001CDC  ___debuggerDisableTerminateCallback
 0001:00002842  ___doGlobalUnwind
 0002:00000714  ___exceptFlags
 0002:00000728  ___exceptMemAllocVars
 0002:00000724  ___exceptStaticBuffP
 0002:00001978  ___ieee_64_n_inf
 0002:00001988  ___ieee_64_n_nanq
 0002:00001998  ___ieee_64_n_nans
 0002:000019A8  ___ieee_64_n_zero
 0002:00001970  ___ieee_64_p_inf
 0002:00001980  ___ieee_64_p_nanq
 0002:00001990  ___ieee_64_p_nans
 0002:000019A0  ___ieee_64_p_zero
 0002:0000007D  ___isDLL
 0002:00000044  ___isGUI
 0002:0000007C  ___isVCLPackage
 0001:00002860  ___isatty
 0001:00002890  ___isatty_osfhandle
 0001:0000333C  ___isctype
 0001:00003380  ___iswctype
 0001:00003654  ___ldtrunc
 0002:0000167C  ___locale
 0001:0000376C  ___longtoa
 0001:000028A8  ___lseek
 0001:0000115C  ___org__expand
 0001:000037FC  ___org__matherr
 0001:00003828  ___org__matherrl
 0001:000013D4  ___org__msize
 0001:00002A88  ___org__rtl_write
 0001:00002AD0  ___org__write
 0001:00000200  ___org_calloc
 0001:0000022C  ___org_delete
 0001:0000023C  ___org_deletea
 0001:00002B6C  ___org_fflush
 0001:000006AC  ___org_free
 0001:0000069C  ___org_malloc
 0001:00001860  ___org_memcmp
 0001:00001680  ___org_memcpy
 0001:000016A4  ___org_memmove
 0001:000016F0  ___org_memset
 0001:00000260  ___org_new
 0001:00000404  ___org_newa
 0001:00005EE0  ___org_raise
 0001:000006BC  ___org_realloc
 0001:000018CC  ___org_strdup
 0001:00001794  ___org_strlen
 0001:000017F0  ___org_strncat
 0003:00000864  ___pCPPdebugHook
 0002:00001B38  ___pCallAtExitProcs
 0001:00006531  ___raiseDebuggerException
 0002:000006D4  ___terminatePTR
 0002:00000720  ___throwExceptionName
 0002:00000718  ___throwFileName
 0002:0000071C  ___throwLineNumber
 0002:000006D8  ___unexpectdPTR
 0002:0000008A  ___useDynamicTLS
 0001:000037E0  ___utoa
 0001:00002920  ___write
 0001:000048BC  ___xcvt
 0001:00004B90  ___xcvtw
 0004:00000000  ___xxInfo
 0002:00000388  ___xxPersonality
 0001:000053BC  __abort
 0001:000000B0  __acrtused
 0001:00002AEC  __allocbuf
 0003:00000834  __argc
 0003:000007FC  __argv
 0002:00001C00  __argv0
 0001:000054A4  __argv_default_expand
 0002:00001BF8  __argv_expand_ptr
 0001:0000507C  __assert
 0003:00000008  __bormm_pfn_FreeMem
 0003:0000000C  __bormm_pfn_GetMem
 0003:00000014  __bormm_pfn_HeapAddRef
 0003:00000018  __bormm_pfn_HeapRelease
 0003:00000010  __bormm_pfn_ReallocMem
 0001:00005478  __c_exit
 0001:00005468  __cexit
 0002:00000808  __cfinfo_get
 0002:0000133C  __chartype
 0001:0000603C  __cleanup
 0001:00003560  __clear87
 0002:00001BAC  __cmdline_escapes
 0001:00003574  __control87
 0001:00005F60  __create_shmem
 0001:00003BAC  __cvt_init
 0001:00003EE0  __cvt_initw
 0002:00001930  __default87
 0003:00000838  __dll_table
 0002:00000D94  __dosErrorToSV
 0003:000005D0  __doserrno
 0001:00002CAC  __dup_handle
 0003:0000081C  __env_lock
 0003:00000810  __environ
 0003:00000818  __envsize
 0003:00000854  __exe_table
 0001:00005450  __exit
 0001:000027CC  __exit_except
 0001:0000305C  __exit_streams
 0001:0000557C  __exitargv
 0002:00001B4C  __exitargv_ptr
 0002:00001B3C  __exitbuf
 0002:00001B40  __exitfopen
 0002:00001B44  __exitopen
 0001:0000115C  __expand
 0001:00005AEC  __expandblock
 0002:0000080C  __fileinfo
 0002:00000260  __firstHeap
 0002:000019B4  __floatconvert
 0001:00002A50  __flushall
 0001:00002BEC  __flushout
 0002:00000D8C  __fmode
 0002:00000D90  __fmodeptr
 0001:000035D4  __fpreset
 0002:0000026C  __freeStart
 0001:00002D14  __free_handle
 0001:0000077C  __free_heaps
 0001:000035EC  __fuildq
 0001:0000361C  __fuistq
 0001:00003640  __fxam
 0001:00000116  __getHInstance
 0001:000030E0  __getLocaleNumericInfo
 0001:00002C6C  __get_handle
 0001:00004FA8  __getmbcp
 0002:00000093  __hInstance
 0001:000057B8  __handle_exitargv
 0001:00005660  __handle_setargv
 0001:000059DC  __handle_wexitargv
 0001:00005848  __handle_wsetargv
 0003:00000508  __handles
 0002:00000228  __heap_redirector
 0002:00001938  __huge_dble
 0002:00001934  __huge_flt
 0002:00001940  __huge_ldble
 0002:00001960  __indefinite
 0001:00004FB0  __initMBCSTable
 0001:000027B4  __init_except
 0001:00005F68  __init_exit_proc
 0001:00002DCC  __init_handles
 0001:000054CC  __init_setargv_handlers
 0001:00002FA0  __init_streams
 0001:00005488  __init_wild_handlers
 0001:00002C58  __initfileinfo
 0001:00002C48  __initfmode
 0001:00003858  __initmatherr
 0001:00000D74  __internal_free
 0001:000010FC  __internal_free_heaps
 0001:00000EE4  __internal_malloc
 0001:0000133C  __internal_realloc
 0001:0000010E  __isDLL
 0002:00001CD4  __isWindows
 0001:00004FC0  __ismbcspace
 0002:00001A4C  __kalpha
 0002:00001A4E  __kpunct
 0002:00000264  __lastHeap
 0002:00000268  __linktable
 0001:000037FC  __matherr
 0001:00003828  __matherrl
 0002:0000194E  __max_dble
 0002:0000194A  __max_flt
 0002:00001956  __max_ldble
 0003:000006D8  __mbcsCodePage
 0003:000005D4  __mbctype
 0001:00004FDC  __mbsrchr
 0002:00001AE4  __messagefile
 0002:00001AE0  __messagefunc
 0001:000013D4  __msize
 0003:00000000  __new_handler
 0002:00001864  __nextrealptr
 0002:000018CC  __nextrealwptr
 0002:00000CC0  __nfile
 0002:00000250  __nv_heap_size
 0002:00000CC4  __openfd
 0003:0000082C  __oscmd
 0003:00000830  __osenv
 0003:000007F8  __ostype
 0001:000010E4  __phys_avail
 0003:00000440  __pidtab
 0002:000019B8  __pmatherr
 0002:000019BC  __pmatherrl
 0001:000033D8  __pow10
 0001:00003870  __qdiv10
 0001:00003898  __qmul10
 0002:00001860  __realcvtptr
 0002:000018C8  __realcvtwptr
 0002:00000278  __rover
 0001:00002A88  __rtl_write
 0001:000043C4  __scan_init
 0001:000048A4  __scan_initw
 0002:0000186C  __scanrsltptr
 0002:00001868  __scantodptr
 0002:000018D4  __scanwrsltptr
 0002:000018D0  __scanwtodptr
 0001:000054F4  __setargv
 0002:00001B58  __setargv__
 0002:00001B48  __setargv_ptr
 0002:00001C20  __setenvp__
 0001:00002768  __setexc
 0001:00004E84  __setmbcp
 0002:00000254  __smalloc_threshold
 0001:000060A8  __startup
 0003:0000085C  __stkbase
 0002:000007F4  __stkchk
 0002:00000810  __streams
 0002:00000EC0  __sys_errlist
 0002:00000F84  __sys_nerr
 0001:00005F50  __terminate
 0002:00001964  __tiny_ldble
 0002:000019B0  __turboFloat
 0001:00002784  __unsetexc
 0001:000027A8  __unsetuserhandler
 0002:00000258  __virt_chunk_free
 0002:0000025C  __virt_chunk_free2
 0002:00000248  __virt_chunk_size
 0002:0000024C  __virt_chunk_size2
 0002:00000244  __virt_heap_size
 0003:0000084C  __wC0argv
 0003:00000850  __wC0environ
 0001:000054B8  __wargv_default_expand
 0002:00001BFC  __wargv_expand_ptr
 0002:00001B54  __wexitargv_ptr
 0001:0000177C  __wmemset
 0003:00000848  __woscmd
 0003:00000844  __wosenv
 0001:00002AD0  __write
 0002:00001B50  __wsetargv_ptr
 0001:000030B8  __xfflush
 0001:000053D0  _abort
 0001:00000200  _calloc
 0002:00001ADC  _errno
 0001:00005438  _exit
 0001:00002B6C  _fflush
 0001:000006AC  _free
 0001:00003134  _isalnum
 0001:00003160  _isalpha
 0001:0000314C  _isascii
 0001:00003178  _iscntrl
 0001:0000318C  _isdigit
 0001:000031A0  _isgraph
 0001:000031B8  _islower
 0001:000031CC  _isprint
 0001:000031E4  _ispunct
 0001:000031F8  _isspace
 0001:0000320C  _isupper
 0001:00003238  _iswalnum
 0001:00003264  _iswalpha
 0001:00003250  _iswascii
 0001:0000327C  _iswcntrl
 0001:00003290  _iswdigit
 0001:000032A4  _iswgraph
 0001:000032BC  _iswlower
 0001:000032D0  _iswprint
 0001:000032E8  _iswpunct
 0001:000032FC  _iswspace
 0001:00003310  _iswupper
 0001:00003324  _iswxdigit
 0001:00003220  _isxdigit
 0001:0000069C  _malloc
 0001:00001860  _memcmp
 0001:00001680  _memcpy
 0001:000016A4  _memmove
 0001:000016F0  _memset
 0001:00005EE0  _raise
 0001:000006BC  _realloc
 0001:00005E80  _signal
 0001:000018CC  _strdup
 0001:00001794  _strlen
 0001:000017F0  _strncat
 0001:00001918  _wcscpy
 0001:00001900  _wcslen

 Address Publics by Value

 0001:000000B0  __acrtused
 0001:000000B0  @C1_0
 0001:00000109  __GetExceptDLLinfo
 0001:0000010E  __isDLL
 0001:00000116  __getHInstance
 0001:000001F0  @Sysinit@@GetTls$qqrv
 0001:000001F0  ___System__GetTls
 0001:00000200  ___org_calloc
 0001:00000200  _calloc
 0001:00000200  @C175_0
 0001:0000022C  ___org_delete
 0001:0000022C  @$bdele$qpv
 0001:0000022C  @C177_0
 0001:0000023C  @$bdla$qpv
 0001:0000023C  ___org_deletea
 0001:0000023C  @C179_0
 0001:0000024C  @C181_0
 0001:0000024C  @std@set_new_handler$qpqv$v
 0001:00000260  @$bnew$qui
 0001:00000260  ___org_new
 0001:000002F0  @$xt$13std@bad_alloc
 0001:00000348  @std@bad_alloc@$bctr$qrx13std@bad_alloc
 0001:00000388  @$xt$p13std@bad_alloc
 0001:000003A0  @$xt$13std@exception
 0001:000003EC  @std@exception@what$xqv
 0001:000003F8  @std@bad_alloc@what$xqv
 0001:00000404  @C183_0
 0001:00000404  @$bnwa$qui
 0001:00000404  ___org_newa
 0001:00000414  @C185_0
 0001:00000468  @C185_3
 0001:00000474  @C185_4
 0001:000004B4  @C185_5
 0001:000004E8  @C205_0
 0001:000004E8  @_virt_reserve
 0001:00000554  @_virt_alloc
 0001:0000057C  @_virt_commit
 0001:000005C8  @_virt_decommit
 0001:000005E0  @_virt_release
 0001:000005FC  @C207_0
 0001:0000061C  ___CRTL_MEM_GetBorMemPtrs
 0001:00000698  ___CRTL_MEM_CheckBorMem
 0001:0000069C  _malloc
 0001:0000069C  @C213_0
 0001:0000069C  ___org_malloc
 0001:000006AC  ___org_free
 0001:000006AC  _free
 0001:000006BC  @C215_0
 0001:000006BC  _realloc
 0001:000006BC  ___org_realloc
 0001:000006D4  ___CRTL_MEM_Revector
 0001:000006D4  @C217_0
 0001:00000770  @C217_2
 0001:0000077C  __free_heaps
 0001:0000078C  @C219_0
 0001:0000078C  ___CRTL_MEM_UseBorMM
 0001:00000790  @C223_0
 0001:00000D74  __internal_free
 0001:00000EE4  __internal_malloc
 0001:000010E4  __phys_avail
 0001:000010FC  __internal_free_heaps
 0001:0000115C  ___org__expand
 0001:0000115C  __expand
 0001:0000115C  @C243_0
 0001:0000133C  __internal_realloc
 0001:000013D4  __msize
 0001:000013D4  ___org__msize
 0001:000013F0  @C245_0
 0001:000013F0  ___CRTL_VCL_Init
 0001:000013F4  @C249_0
 0001:000013F4  ___CRTL_VCLLIB_Linkage
 0001:000013F8  @C251_0
 0001:00001428  @C251_3
 0001:00001484  @C251_4
 0001:000014CC  @$xt$12std@bad_cast
 0001:00001524  @$xt$14std@bad_typeid
 0001:0000157C  @std@bad_typeid@$bdtr$qv
 0001:000015C0  @std@bad_cast@$bdtr$qv
 0001:00001604  @std@exception@$bdtr$qv
 0001:00001624  @std@bad_alloc@$bdtr$qv
 0001:00001680  _memcpy
 0001:00001680  @C393_0
 0001:00001680  ___org_memcpy
 0001:000016A4  @C397_0
 0001:000016A4  _memmove
 0001:000016A4  ___org_memmove
 0001:000016F0  @C399_0
 0001:000016F0  ___org_memset
 0001:000016F0  _memset
 0001:0000177C  @C401_0
 0001:0000177C  __wmemset
 0001:00001794  @C423_0
 0001:00001794  ___org_strlen
 0001:00001794  _strlen
 0001:000017F0  @C425_0
 0001:000017F0  _strncat
 0001:000017F0  ___org_strncat
 0001:00001860  @C441_0
 0001:00001860  ___org_memcmp
 0001:00001860  _memcmp
 0001:000018CC  ___org_strdup
 0001:000018CC  @C447_0
 0001:000018CC  _strdup
 0001:00001900  _wcslen
 0001:00001900  @C475_0
 0001:00001918  _wcscpy
 0001:00001918  @C477_0
 0001:00001958  @__InitExceptBlockLDTC
 0001:00001958  @C517_0
 0001:00001991  @__ExitExceptBlock
 0001:0000199F  __ExceptionHandler
 0001:000019C8  @C521_0
 0001:00001B1F  @C521_4
 0001:00001E7B  @C521_3
 0001:00001EA6  @C521_5
 0001:00001EC8  @__typeIDname$qp4tpid
 0001:00001F00  @__isSameTypeID$qp4tpidt1
 0001:00001FDC  @__isCompatTypeID$qp4tpidt1ipp4tpid
 0001:000020EC  @std@type_info@$bdtr$qv
 0001:0000210C  @std@type_info@$beql$xqrx13std@type_info
 0001:00002180  @__GetTypeInfo$qpvt1t1
 0001:000022B8  @std@bad_typeid@$bctr$qrx14std@bad_typeid
 0001:000022D0  @std@type_info@name$xqv
 0001:00002338  @__adjustClassAdr$qpvp4tpidt2
 0001:000023B4  @$xt$13std@type_info
 0001:00002400  @$xt$14type_info_hash
 0001:00002458  @type_info_hash@$bdtr$qv
 0001:00002480  @_InitTermAndUnexPtrs$qv
 0001:000024A8  @std@terminate$qv
 0001:000024F8  @std@unexpected$qv
 0001:00002520  @C525_0
 0001:00002520  @C525_4
 0001:0000254C  ___call_terminate
 0001:000025C0  ___call_unexpected
 0001:000025F8  __ExceptInit
 0001:00002644  __GetExceptDLLinfoInternal
 0001:0000266C  @C527_0
 0001:0000266C  ___DefHandler
 0001:00002678  @C531_0
 0001:00002768  __setexc
 0001:00002784  __unsetexc
 0001:00002794  __SetUserHandler
 0001:000027A8  __unsetuserhandler
 0001:000027B4  __init_except
 0001:000027B4  @C531_3
 0001:000027CC  @C531_4
 0001:000027CC  __exit_except
 0001:000027E0  __InitDefaultHander
 0001:000027F4  @C535_0
 0001:000027F4  __SetExceptionHandler
 0001:00002809  __UnsetExceptionHandler
 0001:00002835  __UnwindException
 0001:0000283C  @C537_0
 0001:0000283C  @jump$qv
 0001:00002842  ___doGlobalUnwind
 0001:00002857  @invokeHnd$qv
 0001:00002860  ___isatty
 0001:00002860  @C553_0
 0001:00002890  ___isatty_osfhandle
 0001:000028A8  ___lseek
 0001:000028A8  @C555_0
 0001:00002920  @C565_0
 0001:00002920  ___write
 0001:00002A3C  @C567_0
 0001:00002A50  @C585_0
 0001:00002A50  __flushall
 0001:00002A88  __rtl_write
 0001:00002A88  @C641_0
 0001:00002A88  ___org__rtl_write
 0001:00002AD0  __write
 0001:00002AD0  ___org__write
 0001:00002AEC  __allocbuf
 0001:00002AEC  @C645_0
 0001:00002B6C  _fflush
 0001:00002B6C  ___org_fflush
 0001:00002B6C  @C707_0
 0001:00002BEC  __flushout
 0001:00002BEC  @C729_0
 0001:00002C48  __initfmode
 0001:00002C48  @C733_0
 0001:00002C58  __initfileinfo
 0001:00002C6C  __get_handle
 0001:00002C6C  @C797_0
 0001:00002CAC  __dup_handle
 0001:00002D14  __free_handle
 0001:00002DCC  __init_handles
 0001:00002F28  @C799_0
 0001:00002F28  ___IOerror
 0001:00002F6C  ___DOSerror
 0001:00002F8C  ___NTerror
 0001:00002FA0  @C899_0
 0001:00002FA0  __init_streams
 0001:0000305C  __exit_streams
 0001:0000305C  @C899_1
 0001:000030B8  __xfflush
 0001:000030B8  @C1005_0
 0001:000030E0  @C1019_0
 0001:000030E0  __getLocaleNumericInfo
 0001:00003134  _isalnum
 0001:00003134  @C1027_0
 0001:0000314C  _isascii
 0001:00003160  _isalpha
 0001:00003178  _iscntrl
 0001:0000318C  _isdigit
 0001:000031A0  _isgraph
 0001:000031B8  _islower
 0001:000031CC  _isprint
 0001:000031E4  _ispunct
 0001:000031F8  _isspace
 0001:0000320C  _isupper
 0001:00003220  _isxdigit
 0001:00003238  @C1029_0
 0001:00003238  _iswalnum
 0001:00003250  _iswascii
 0001:00003264  _iswalpha
 0001:0000327C  _iswcntrl
 0001:00003290  _iswdigit
 0001:000032A4  _iswgraph
 0001:000032BC  _iswlower
 0001:000032D0  _iswprint
 0001:000032E8  _iswpunct
 0001:000032FC  _iswspace
 0001:00003310  _iswupper
 0001:00003324  _iswxdigit
 0001:0000333C  @C1031_0
 0001:0000333C  ___isctype
 0001:00003380  @C1033_0
 0001:00003380  ___iswctype
 0001:000033D8  __pow10
 0001:000033D8  @C1171_0
 0001:00003560  @C1207_0
 0001:00003560  __clear87
 0001:00003574  __control87
 0001:00003574  @C1221_0
 0001:000035A4  @C1227_0
 0001:000035BC  @C1229_0
 0001:000035D4  @C1269_0
 0001:000035D4  __fpreset
 0001:000035EC  __fuildq
 0001:000035EC  @C1277_0
 0001:0000361C  __fuistq
 0001:0000361C  @C1279_0
 0001:00003640  __fxam
 0001:00003640  @C1281_0
 0001:00003654  ___ldtrunc
 0001:00003654  @C1307_0
 0001:0000376C  @C1317_0
 0001:0000376C  ___longtoa
 0001:000037E0  ___utoa
 0001:000037FC  @C1329_0
 0001:000037FC  ___org__matherr
 0001:000037FC  __matherr
 0001:00003828  @C1331_0
 0001:00003828  ___org__matherrl
 0001:00003828  __matherrl
 0001:00003858  @C1333_0
 0001:00003858  __initmatherr
 0001:00003870  __qdiv10
 0001:00003870  @C1355_0
 0001:00003898  @C1357_0
 0001:00003898  __qmul10
 0001:000038C8  @C1361_0
 0001:00003BAC  __cvt_init
 0001:00003BC4  @C1363_0
 0001:00003EE0  __cvt_initw
 0001:00003EF8  @C1371_0
 0001:000043C4  __scan_init
 0001:000043DC  @C1373_0
 0001:000048A4  __scan_initw
 0001:000048BC  ___xcvt
 0001:000048BC  @C1417_0
 0001:00004B90  ___xcvtw
 0001:00004B90  @C1419_0
 0001:00004E84  @C1431_0
 0001:00004E84  __setmbcp
 0001:00004FA8  __getmbcp
 0001:00004FB0  __initMBCSTable
 0001:00004FB0  @C1431_3
 0001:00004FC0  __ismbcspace
 0001:00004FC0  @C1453_0
 0001:00004FDC  @C1515_0
 0001:00004FDC  __mbsrchr
 0001:00005034  @C1567_0
 0001:0000507C  __assert
 0001:000050DC  @C1583_0
 0001:0000512C  __ErrorMessageHelper
 0001:00005194  @C1587_0
 0001:000051EC  __ErrorMessage
 0001:00005308  ___ErrorMessage
 0001:00005318  __ErrorExit
 0001:00005330  @C1595_0
 0001:00005330  @C1595_3
 0001:000053BC  __abort
 0001:000053BC  @C1615_0
 0001:000053D0  _abort
 0001:000053E0  @C1653_0
 0001:00005438  _exit
 0001:00005450  __exit
 0001:00005468  __cexit
 0001:00005478  __c_exit
 0001:00005488  @C1661_0
 0001:00005488  __init_wild_handlers
 0001:000054A4  @C1663_0
 0001:000054A4  __argv_default_expand
 0001:000054B8  __wargv_default_expand
 0001:000054B8  @C1665_0
 0001:000054CC  __init_setargv_handlers
 0001:000054CC  @C1671_0
 0001:000054F4  @C1677_3
 0001:000054F4  @C1677_0
 0001:000054F4  __setargv
 0001:0000557C  __exitargv
 0001:0000557C  @C1677_4
 0001:00005660  __handle_setargv
 0001:00005660  @C1679_0
 0001:000057B8  __handle_exitargv
 0001:00005848  __handle_wsetargv
 0001:00005848  @C1681_0
 0001:000059DC  __handle_wexitargv
 0001:00005A70  @C1739_2
 0001:00005A70  @C1739_0
 0001:00005AA8  @C1739_3
 0001:00005AB8  @C1753_0
 0001:00005AB8  @C1753_4
 0001:00005AEC  __expandblock
 0001:00005C38  @C1753_3
 0001:00005C58  @C1757_0
 0001:00005E80  _signal
 0001:00005EE0  ___org_raise
 0001:00005EE0  _raise
 0001:00005F50  __terminate
 0001:00005F50  @C1777_0
 0001:00005F60  __create_shmem
 0001:00005F68  __init_exit_proc
 0001:0000603C  __cleanup
 0001:000060A8  __startup
 0001:000060A8  @C1779_0
 0001:0000624C  ___CRTL_TLS_Alloc
 0001:0000624C  @C1793_0
 0001:00006254  ___CRTL_TLS_Free
 0001:00006264  ___CRTL_TLS_GetValue
 0001:00006274  ___CRTL_TLS_SetValue
 0001:00006288  ___CRTL_TLS_InitThread
 0001:00006290  ___CRTL_TLS_ExitThread
 0001:00006298  ___CRTL_TLS_GetInfo
 0001:0000629C  @C1873_0
 0001:0000629C  @C1873_3
 0001:000062C7  ___JumpToCatch__
 0001:00006531  ___raiseDebuggerException
 0001:000068EC  @_ThrowExceptionLDTC$qpvt1t1t1uiuiuipuct1
 0001:00006921  @_ReThrowException$quipuc
 0001:0000698C  __Global_unwind
 0001:00006AC8  @_CatchCleanup$qv
 0001:00006FF8  __Local_unwind
 0001:0000700B  __Return_unwind
 0001:0000706C  ____ExceptionHandler
 0001:00007DEA  __CurrExcContext
 0002:00000000  @D1_1
 0002:00000044  ___isGUI
 0002:0000007C  ___isVCLPackage
 0002:0000007D  ___isDLL
 0002:0000008A  ___useDynamicTLS
 0002:0000008B  __TLS_index
 0002:0000008F  __TLS_index4
 0002:00000093  __hInstance
 0002:00000098  ___CPPdebugHook_segment
 0002:00000098  ___CPPdebugHook
 0002:0000009C  __PackageInfoTable
 0002:000000A4  @D181_1
 0002:000000EC  @std@exception@3
 0002:00000100  @std@bad_alloc@3
 0002:00000114  @D185_1
 0002:00000188  @D205_1
 0002:0000018C  @D207_1
 0002:00000224  @D217_1
 0002:00000228  __heap_redirector
 0002:00000244  @D223_1
 0002:00000244  __virt_heap_size
 0002:00000248  __virt_chunk_size
 0002:0000024C  __virt_chunk_size2
 0002:00000250  __nv_heap_size
 0002:00000254  __smalloc_threshold
 0002:00000258  __virt_chunk_free
 0002:0000025C  __virt_chunk_free2
 0002:00000260  __firstHeap
 0002:00000264  __lastHeap
 0002:00000268  __linktable
 0002:0000026C  __freeStart
 0002:00000278  __rover
 0002:00000280  ___allocated
 0002:00000284  @D251_1
 0002:000002BC  @_$ECTTN$@std@bad_typeid@$bdtr$qv
 0002:000002C4  @_$ECTUN$@std@bad_cast@$bdtr$qv
 0002:000002CC  @std@bad_typeid@3
 0002:000002E0  @std@bad_cast@3
 0002:000002F4  @D313_1
 0002:000002F4  @__rwstd@__rw_stdexcept_NoNamedException
 0002:000002F8  @__rwstd@__rw_stdexcept_BadException
 0002:000002FC  @__rwstd@__rw_stdexcept_BadAllocException
 0002:00000300  @__rwstd@__rw_stdexcept_Error
 0002:00000364  @_$DCTFE$@std@bad_alloc@$bdtr$qv
 0002:00000374  @_$ECTUFE$@std@bad_alloc@$bdtr$qv
 0002:00000388  @D519_0
 0002:00000388  ___xxPersonality
 0002:0000038C  @D521_1
 0002:000006AC  @_$ECTWC$@__GetTypeInfo$qpvt1t1
 0002:000006B4  @type_info_hash@3
 0002:000006C4  @std@type_info@3
 0002:000006D4  @D523_1
 0002:000006D4  ___terminatePTR
 0002:000006D8  ___unexpectdPTR
 0002:000006DC  @_$CHVC$@std@terminate$qv
 0002:000006FC  @_$ECTWC$@std@terminate$qv
 0002:00000710  ___CPPexceptionList
 0002:00000710  @D525_1
 0002:00000714  ___exceptFlags
 0002:00000718  ___throwFileName
 0002:0000071C  ___throwLineNumber
 0002:00000720  ___throwExceptionName
 0002:00000724  ___exceptStaticBuffP
 0002:00000728  ___exceptMemAllocVars
 0002:0000072C  ___ExceptStaticXbuff
 0002:000007AC  __ExceptVarsSize
 0002:000007C0  @_$CHVC$@__call_terminate$qv
 0002:000007E0  @_$ECTWC$@__call_terminate$qv
 0002:000007F4  __stkchk
 0002:000007F4  @D531_1
 0002:00000808  __cfinfo_get
 0002:00000808  @D567_1
 0002:0000080C  @D647_0
 0002:0000080C  __fileinfo
 0002:00000810  __streams
 0002:00000810  @D719_0
 0002:00000CC0  @D721_0
 0002:00000CC0  __nfile
 0002:00000CC4  __openfd
 0002:00000D8C  __fmode
 0002:00000D8C  @D731_0
 0002:00000D90  @D733_1
 0002:00000D90  __fmodeptr
 0002:00000D94  __dosErrorToSV
 0002:00000D94  @D799_1
 0002:00000EC0  __sys_errlist
 0002:00000EC0  @D831_1
 0002:00000F84  __sys_nerr
 0002:0000133C  __chartype
 0002:0000133C  @D1007_0
 0002:00001540  @D1037_0
 0002:00001540  _CMonetary
 0002:00001574  _CNumeric
 0002:0000158C  _CTimeDate
 0002:00001650  _CLOCALE
 0002:0000167C  ___locale
 0002:000017A0  @D1171_1
 0002:00001860  __realcvtptr
 0002:00001860  @D1227_1
 0002:00001864  __nextrealptr
 0002:00001868  __scantodptr
 0002:0000186C  __scanrsltptr
 0002:000018C8  @D1229_1
 0002:000018C8  __realcvtwptr
 0002:000018CC  __nextrealwptr
 0002:000018D0  __scanwtodptr
 0002:000018D4  __scanwrsltptr
 0002:00001930  __default87
 0002:00001930  @D1231_0
 0002:00001934  __huge_flt
 0002:00001934  @D1285_0
 0002:00001938  __huge_dble
 0002:00001940  __huge_ldble
 0002:0000194A  __max_flt
 0002:0000194E  __max_dble
 0002:00001956  __max_ldble
 0002:00001960  __indefinite
 0002:00001964  __tiny_ldble
 0002:00001970  ___ieee_64_p_inf
 0002:00001978  ___ieee_64_n_inf
 0002:00001980  ___ieee_64_p_nanq
 0002:00001988  ___ieee_64_n_nanq
 0002:00001990  ___ieee_64_p_nans
 0002:00001998  ___ieee_64_n_nans
 0002:000019A0  ___ieee_64_p_zero
 0002:000019A8  ___ieee_64_n_zero
 0002:000019B0  @D1295_0
 0002:000019B0  __turboFloat
 0002:000019B4  __floatconvert
 0002:000019B8  @D1333_1
 0002:000019B8  __pmatherr
 0002:000019BC  __pmatherrl
 0002:000019C0  @D1361_1
 0002:000019D4  @D1363_1
 0002:000019FC  @D1371_1
 0002:00001A24  @D1373_1
 0002:00001A4C  @D1431_1
 0002:00001A4C  __kalpha
 0002:00001A4E  __kpunct
 0002:00001A94  @D1567_1
 0002:00001AB8  @D1583_1
 0002:00001ADC  @D1585_1
 0002:00001ADC  _errno
 0002:00001AE0  @D1587_1
 0002:00001AE0  __messagefunc
 0002:00001AE4  __messagefile
 0002:00001AF0  @D1595_1
 0002:00001B18  @D1615_1
 0002:00001B38  @D1617_0
 0002:00001B38  ___pCallAtExitProcs
 0002:00001B3C  @D1653_1
 0002:00001B3C  __exitbuf
 0002:00001B40  __exitfopen
 0002:00001B44  __exitopen
 0002:00001B48  __setargv_ptr
 0002:00001B48  @D1673_0
 0002:00001B4C  __exitargv_ptr
 0002:00001B50  __wsetargv_ptr
 0002:00001B50  @D1675_0
 0002:00001B54  __wexitargv_ptr
 0002:00001B58  __setargv__
 0002:00001B58  @D1677_1
 0002:00001BAC  __cmdline_escapes
 0002:00001BAC  @D1679_1
 0002:00001BD4  @D1681_1
 0002:00001BF8  __argv_expand_ptr
 0002:00001BF8  @D1735_0
 0002:00001BFC  @D1737_0
 0002:00001BFC  __wargv_expand_ptr
 0002:00001C00  __argv0
 0002:00001C00  @D1739_1
 0002:00001C20  __setenvp__
 0002:00001C20  @D1753_1
 0002:00001C74  @D1757_1
 0002:00001CD4  __isWindows
 0002:00001CD4  @D1775_0
 0002:00001CD8  @D1777_1
 0002:00001CDC  ___debuggerDisableTerminateCallback
 0002:00001CDC  @D1873_1
 0003:00000000  @B185_2
 0003:00000000  __new_handler
 0003:00000004  ___bad_alloc
 0003:00000008  @B207_2
 0003:00000008  __bormm_pfn_FreeMem
 0003:0000000C  __bormm_pfn_GetMem
 0003:00000010  __bormm_pfn_ReallocMem
 0003:00000014  __bormm_pfn_HeapAddRef
 0003:00000018  __bormm_pfn_HeapRelease
 0003:00000020  @B251_2
 0003:00000028  @B521_2
 0003:00000430  @B525_2
 0003:00000430  __DestructorCountPtr
 0003:00000438  __HandlerPtr
 0003:00000438  @B531_2
 0003:0000043C  __UserHandlerPtr
 0003:00000440  __pidtab
 0003:00000440  @B721_1
 0003:00000508  __handles
 0003:000005D0  __doserrno
 0003:000005D0  @B799_2
 0003:000005D4  __mbctype
 0003:000005D4  @B1431_2
 0003:000006D8  __mbcsCodePage
 0003:000006DC  @B1567_2
 0003:000007DC  @B1583_2
 0003:000007F8  __ostype
 0003:000007F8  @B1595_2
 0003:000007FC  __argv
 0003:000007FC  @B1677_2
 0003:00000808  @B1679_2
 0003:0000080C  @B1681_2
 0003:00000810  @B1753_2
 0003:00000810  __environ
 0003:00000818  __envsize
 0003:0000081C  __env_lock
 0003:00000820  __C0argc
 0003:00000820  @B1775_1
 0003:00000824  __C0argv
 0003:00000828  __C0environ
 0003:0000082C  __oscmd
 0003:00000830  __osenv
 0003:00000834  __argc
 0003:00000838  __dll_table
 0003:00000840  __ExcRegPtr
 0003:00000844  __wosenv
 0003:00000848  __woscmd
 0003:0000084C  __wC0argv
 0003:00000850  __wC0environ
 0003:00000854  __exe_table
 0003:0000085C  __stkbase
 0003:00000860  @B1873_2
 0003:00000864  ___pCPPdebugHook
 0004:00000000  ___xxInfo
 0004:00000000  @T525_3
